target datalayout = "e-m:e-p270:32:32-p271:32:32-p272:64:64-i64:64-i128:128-f80:128-n8:16:32:64-S128"
target triple = "x86_64-pc-linux-gnu"

%struct.KRB5KDF_CTX = type { ptr, %struct.PROV_CIPHER, ptr, i64, ptr, i64 }
%struct.PROV_CIPHER = type { ptr, ptr, ptr }

@.str = private unnamed_addr constant [52 x i8] c"../openssl/providers/implementations/kdfs/krb5kdf.c\00", align 1

; Function Attrs: nounwind uwtable
define internal void @krb5kdf_reset(ptr noundef %0) #0 {
  %2 = alloca ptr, align 8
  %3 = alloca ptr, align 8
  %4 = alloca ptr, align 8
  store ptr %0, ptr %2, align 8, !tbaa !3
  call void @llvm.lifetime.start.p0(i64 8, ptr %3) #6
  %5 = load ptr, ptr %2, align 8, !tbaa !3
  store ptr %5, ptr %3, align 8, !tbaa !3
  call void @llvm.lifetime.start.p0(i64 8, ptr %4) #6
  %6 = load ptr, ptr %3, align 8, !tbaa !3
  %7 = getelementptr inbounds nuw %struct.KRB5KDF_CTX, ptr %6, i32 0, i32 0
  %8 = load ptr, ptr %7, align 8, !tbaa !7
  store ptr %8, ptr %4, align 8, !tbaa !3
  %9 = load ptr, ptr %3, align 8, !tbaa !3
  %10 = getelementptr inbounds nuw %struct.KRB5KDF_CTX, ptr %9, i32 0, i32 1
  call void @ossl_prov_cipher_reset(ptr noundef %10)
  %11 = load ptr, ptr %3, align 8, !tbaa !3
  %12 = getelementptr inbounds nuw %struct.KRB5KDF_CTX, ptr %11, i32 0, i32 2
  %13 = load ptr, ptr %12, align 8, !tbaa !14
  %14 = load ptr, ptr %3, align 8, !tbaa !3
  %15 = getelementptr inbounds nuw %struct.KRB5KDF_CTX, ptr %14, i32 0, i32 3
  %16 = load i64, ptr %15, align 8, !tbaa !15
  call void @CRYPTO_clear_free(ptr noundef %13, i64 noundef %16, ptr noundef @.str, i32 noundef 89)
  %17 = load ptr, ptr %3, align 8, !tbaa !3
  %18 = getelementptr inbounds nuw %struct.KRB5KDF_CTX, ptr %17, i32 0, i32 4
  %19 = load ptr, ptr %18, align 8, !tbaa !16
  %20 = load ptr, ptr %3, align 8, !tbaa !3
  %21 = getelementptr inbounds nuw %struct.KRB5KDF_CTX, ptr %20, i32 0, i32 5
  %22 = load i64, ptr %21, align 8, !tbaa !17
  call void @CRYPTO_clear_free(ptr noundef %19, i64 noundef %22, ptr noundef @.str, i32 noundef 90)
  %23 = load ptr, ptr %3, align 8, !tbaa !3
  call void @llvm.memset.p0.i64(ptr align 8 %23, i8 0, i64 64, i1 false)
  %24 = load ptr, ptr %4, align 8, !tbaa !3
  %25 = load ptr, ptr %3, align 8, !tbaa !3
  %26 = getelementptr inbounds nuw %struct.KRB5KDF_CTX, ptr %25, i32 0, i32 0
  store ptr %24, ptr %26, align 8, !tbaa !7
  call void @llvm.lifetime.end.p0(i64 8, ptr %4) #6
  call void @llvm.lifetime.end.p0(i64 8, ptr %3) #6
  ret void
}